target datalayout = "e-m:e-p270:32:32-p271:32:32-p272:64:64-i64:64-i128:128-f80:128-n8:16:32:64-S128"
target triple = "x86_64-pc-linux-gnu"

%class.Compile = type <{ %class.Phase, i32, %class.Options, [4 x i8], ptr, i32, [4 x i8], ptr, ptr, ptr, ptr, ptr, i32, i32, i32, [4 x i8], i64, i8, i8, [2 x i8], i32, i8, i8, i8, i8, i8, i8, i8, i8, i8, [3 x i8], i32, i8, [3 x i8], [30 x i32], i8, [3 x i8], i32, i8, i8, i8, i8, i8, i8, i8, i8, i8, i8, i8, i8, i8, [3 x i8], i32, i32, [4 x i8], %class.Arena, ptr, ptr, ptr, ptr, %class.CHeapStringHolder, ptr, %class.GrowableArray, %class.GrowableArray.0, %class.GrowableArray.3, %class.GrowableArray.0, %class.GrowableArray.0, %class.GrowableArray.0, %class.GrowableArray.6, %class.GrowableArray.9, ptr, i32, i32, %class.VectorSet, %class.Arena, %class.Arena, ptr, ptr, ptr, ptr, ptr, ptr, ptr, ptr, ptr, %class.Arena, ptr, ptr, %class.CloneMap, i64, ptr, ptr, ptr, i32, i32, [64 x %"struct.Compile::AliasCacheEntry"], ptr, ptr, ptr, ptr, %class.GrowableArray, %class.GrowableArray, %class.GrowableArray, %class.GrowableArray, i32, i32, i8, [7 x i8], ptr, ptr, i32, [4 x i8], ptr, ptr, ptr, i32, i32, ptr, ptr, %class.RegMask, ptr, ptr, i32, [4 x i8], ptr, %class.TimeInstant, i32, [4 x i8] }>
%class.Phase = type { i32, ptr }
%class.Options = type { i8, i8, i8, i8, i8, i8, i8, i8 }
%class.CHeapStringHolder = type { ptr }
%class.GrowableArray.3 = type { %class.GrowableArrayWithAllocator.4, %class.GrowableArrayMetadata }
%class.GrowableArrayWithAllocator.4 = type { %class.GrowableArrayView.5 }
%class.GrowableArrayView.5 = type { %class.GrowableArrayBase, ptr }
%class.GrowableArrayBase = type { i32, i32 }
%class.GrowableArrayMetadata = type { i64 }
%class.GrowableArray.0 = type { %class.GrowableArrayWithAllocator.1, %class.GrowableArrayMetadata }
%class.GrowableArrayWithAllocator.1 = type { %class.GrowableArrayView.2 }
%class.GrowableArrayView.2 = type { %class.GrowableArrayBase, ptr }
%class.GrowableArray.6 = type { %class.GrowableArrayWithAllocator.7, %class.GrowableArrayMetadata }
%class.GrowableArrayWithAllocator.7 = type { %class.GrowableArrayView.8 }
%class.GrowableArrayView.8 = type { %class.GrowableArrayBase, ptr }
%class.GrowableArray.9 = type { %class.GrowableArrayWithAllocator.10, %class.GrowableArrayMetadata }
%class.GrowableArrayWithAllocator.10 = type { %class.GrowableArrayView.11 }
%class.GrowableArrayView.11 = type { %class.GrowableArrayBase, ptr }
%class.VectorSet = type { i32, ptr, i32, ptr }
%class.Arena = type { i8, i8, i64, ptr, ptr, ptr, ptr }
%class.CloneMap = type <{ i8, [7 x i8], ptr, i32, [4 x i8] }>
%"struct.Compile::AliasCacheEntry" = type { ptr, i32 }
%class.GrowableArray = type { %class.GrowableArrayWithAllocator, %class.GrowableArrayMetadata }
%class.GrowableArrayWithAllocator = type { %class.GrowableArrayView }
%class.GrowableArrayView = type { %class.GrowableArrayBase, ptr }
%class.RegMask = type { %union.anon, i32, i32 }
%union.anon = type { [11 x i64] }
%class.TimeInstant = type { %class.CompositeCounterRepresentation }
%class.CompositeCounterRepresentation = type { %class.Representation }
%class.Representation = type { %class.PairRep }
%class.PairRep = type { i64, i64 }
%class.IntrinsicDescPair = type <{ ptr, i8, [7 x i8] }>
%class.CallGenerator = type { ptr, ptr }
%class.ciMethod = type { %class.ciMetadata, %class.ciFlags, ptr, ptr, ptr, ptr, ptr, i32, i32, i32, i32, i32, i32, i32, i32, i32, i8, i8, i8, i8, i8, i8, i8, i8, i8, ptr, ptr, ptr, ptr, ptr }
%class.ciMetadata = type { %class.ciBaseObject.base, ptr }
%class.ciBaseObject.base = type <{ ptr, i32 }>
%class.ciFlags = type <{ i32, i8, i8, [2 x i8] }>

; Function Attrs: mustprogress nounwind uwtable
define linkonce_odr hidden noundef ptr @_ZNK13CallGenerator6methodEv(ptr noundef nonnull align 8 dereferenceable(16) %0) #1 comdat align 2 {
  %2 = alloca ptr, align 8
  store ptr %0, ptr %2, align 8
  %3 = load ptr, ptr %2, align 8
  %4 = getelementptr inbounds %class.CallGenerator, ptr %3, i32 0, i32 1
  %5 = load ptr, ptr %4, align 8
  ret ptr %5
}

; Function Attrs: mustprogress nounwind uwtable
define linkonce_odr hidden noundef i32 @_ZN17IntrinsicDescPair7compareERKPS_RKP13CallGenerator(ptr noundef nonnull align 8 dereferenceable(8) %0, ptr noundef nonnull align 8 dereferenceable(8) %1) #1 comdat align 2 {
  %3 = alloca i32, align 4
  %4 = alloca ptr, align 8
  %5 = alloca ptr, align 8
  %6 = alloca ptr, align 8
  %7 = alloca ptr, align 8
  %8 = alloca i8, align 1
  %9 = alloca i8, align 1
  store ptr %0, ptr %4, align 8
  store ptr %1, ptr %5, align 8
  %10 = load ptr, ptr %5, align 8
  %11 = load ptr, ptr %10, align 8
  %12 = call noundef ptr @_ZNK13CallGenerator6methodEv(ptr noundef nonnull align 8 dereferenceable(16) %11)
  store ptr %12, ptr %6, align 8
  %13 = load ptr, ptr %4, align 8
  %14 = load ptr, ptr %13, align 8
  %15 = getelementptr inbounds %class.IntrinsicDescPair, ptr %14, i32 0, i32 0
  %16 = load ptr, ptr %15, align 8
  store ptr %16, ptr %7, align 8
  %17 = load ptr, ptr %7, align 8
  %18 = load ptr, ptr %6, align 8
  %19 = icmp ult ptr %17, %18
  br i1 %19, label %20, label %21

20:                                               ; preds = %2
  store i32 -1, ptr %3, align 4
  br label %58

21:                                               ; preds = %2
  %22 = load ptr, ptr %7, align 8
  %23 = load ptr, ptr %6, align 8
  %24 = icmp ugt ptr %22, %23
  br i1 %24, label %25, label %26

25:                                               ; preds = %21
  store i32 1, ptr %3, align 4
  br label %58

26:                                               ; preds = %21
  %27 = load ptr, ptr %5, align 8
  %28 = load ptr, ptr %27, align 8
  %29 = load ptr, ptr %28, align 8
  %30 = getelementptr inbounds ptr, ptr %29, i64 6
  %31 = load ptr, ptr %30, align 8
  %32 = call noundef zeroext i1 %31(ptr noundef nonnull align 8 dereferenceable(16) %28)
  %33 = zext i1 %32 to i8
  store i8 %33, ptr %8, align 1
  %34 = load ptr, ptr %4, align 8
  %35 = load ptr, ptr %34, align 8
  %36 = getelementptr inbounds %class.IntrinsicDescPair, ptr %35, i32 0, i32 1
  %37 = load i8, ptr %36, align 8
  %38 = trunc i8 %37 to i1
  %39 = zext i1 %38 to i8
  store i8 %39, ptr %9, align 1
  %40 = load i8, ptr %9, align 1
  %41 = trunc i8 %40 to i1
  %42 = zext i1 %41 to i32
  %43 = load i8, ptr %8, align 1
  %44 = trunc i8 %43 to i1
  %45 = zext i1 %44 to i32
  %46 = icmp slt i32 %42, %45
  br i1 %46, label %47, label %48

47:                                               ; preds = %26
  store i32 -1, ptr %3, align 4
  br label %58

48:                                               ; preds = %26
  %49 = load i8, ptr %9, align 1
  %50 = trunc i8 %49 to i1
  %51 = zext i1 %50 to i32
  %52 = load i8, ptr %8, align 1
  %53 = trunc i8 %52 to i1
  %54 = zext i1 %53 to i32
  %55 = icmp sgt i32 %51, %54
  br i1 %55, label %56, label %57

56:                                               ; preds = %48
  store i32 1, ptr %3, align 4
  br label %58

57:                                               ; preds = %48
  store i32 0, ptr %3, align 4
  br label %58

58:                                               ; preds = %57, %56, %47, %25, %20
  %59 = load i32, ptr %3, align 4
  ret i32 %59
}

; Function Attrs: mustprogress nounwind uwtable
define linkonce_odr hidden noundef nonnull align 8 dereferenceable(8) ptr @_ZNK17GrowableArrayViewIP13CallGeneratorE2atEi(ptr noundef nonnull align 8 dereferenceable(16) %0, i32 noundef %1) #1 comdat align 2 {
  %3 = alloca ptr, align 8
  %4 = alloca i32, align 4
  store ptr %0, ptr %3, align 8
  store i32 %1, ptr %4, align 4
  %5 = load ptr, ptr %3, align 8
  %6 = getelementptr inbounds %class.GrowableArrayView, ptr %5, i32 0, i32 1
  %7 = load ptr, ptr %6, align 8
  %8 = load i32, ptr %4, align 4
  %9 = sext i32 %8 to i64
  %10 = getelementptr inbounds ptr, ptr %7, i64 %9
  ret ptr %10
}

; Function Attrs: mustprogress nounwind uwtable
define linkonce_odr hidden void @_ZNK8ciMethod15check_is_loadedEv(ptr noundef nonnull align 8 dereferenceable(160) %0) #1 comdat align 2 {
  %2 = alloca ptr, align 8
  store ptr %0, ptr %2, align 8
  ret void
}

; Function Attrs: mustprogress nounwind uwtable
define linkonce_odr hidden noundef i32 @_ZNK17GrowableArrayViewIP13CallGeneratorE11find_sortedIP17IntrinsicDescPairTnPFiRKT_RKS1_EXadL_ZNS4_7compareERKS5_SA_EEEEiS8_Rb(ptr noundef nonnull align 8 dereferenceable(16) %0, ptr noundef nonnull align 8 dereferenceable(8) %1, ptr noundef nonnull align 1 dereferenceable(1) %2) #1 comdat align 2 {
  %4 = alloca i32, align 4
  %5 = alloca ptr, align 8
  %6 = alloca ptr, align 8
  %7 = alloca ptr, align 8
  %8 = alloca i32, align 4
  %9 = alloca i32, align 4
  %10 = alloca i32, align 4
  %11 = alloca ptr, align 8
  %12 = alloca i32, align 4
  store ptr %0, ptr %5, align 8
  store ptr %1, ptr %6, align 8
  store ptr %2, ptr %7, align 8
  %13 = load ptr, ptr %5, align 8
  %14 = load ptr, ptr %7, align 8
  store i8 0, ptr %14, align 1
  store i32 0, ptr %8, align 4
  %15 = call noundef i32 @_ZNK17GrowableArrayBase6lengthEv(ptr noundef nonnull align 4 dereferenceable(8) %13)
  %16 = sub nsw i32 %15, 1
  store i32 %16, ptr %9, align 4
  br label %17

17:                                               ; preds = %46, %3
  %18 = load i32, ptr %9, align 4
  %19 = load i32, ptr %8, align 4
  %20 = icmp sge i32 %18, %19
  br i1 %20, label %21, label %47

21:                                               ; preds = %17
  %22 = load i32, ptr %9, align 4
  %23 = load i32, ptr %8, align 4
  %24 = add i32 %22, %23
  %25 = udiv i32 %24, 2
  store i32 %25, ptr %10, align 4
  %26 = load i32, ptr %10, align 4
  %27 = call noundef nonnull align 8 dereferenceable(8) ptr @_ZNK17GrowableArrayViewIP13CallGeneratorE2atEi(ptr noundef nonnull align 8 dereferenceable(16) %13, i32 noundef %26)
  %28 = load ptr, ptr %27, align 8
  store ptr %28, ptr %11, align 8
  %29 = load ptr, ptr %6, align 8
  %30 = call noundef i32 @_ZN17IntrinsicDescPair7compareERKPS_RKP13CallGenerator(ptr noundef nonnull align 8 dereferenceable(8) %29, ptr noundef nonnull align 8 dereferenceable(8) %11)
  store i32 %30, ptr %12, align 4
  %31 = load i32, ptr %12, align 4
  %32 = icmp sgt i32 %31, 0
  br i1 %32, label %33, label %36

33:                                               ; preds = %21
  %34 = load i32, ptr %10, align 4
  %35 = add nsw i32 %34, 1
  store i32 %35, ptr %8, align 4
  br label %46

36:                                               ; preds = %21
  %37 = load i32, ptr %12, align 4
  %38 = icmp slt i32 %37, 0
  br i1 %38, label %39, label %42

39:                                               ; preds = %36
  %40 = load i32, ptr %10, align 4
  %41 = sub nsw i32 %40, 1
  store i32 %41, ptr %9, align 4
  br label %45

42:                                               ; preds = %36
  %43 = load ptr, ptr %7, align 8
  store i8 1, ptr %43, align 1
  %44 = load i32, ptr %10, align 4
  store i32 %44, ptr %4, align 4
  br label %49

45:                                               ; preds = %39
  br label %46

46:                                               ; preds = %45, %33
  br label %17, !llvm.loop !6

47:                                               ; preds = %17
  %48 = load i32, ptr %8, align 4
  store i32 %48, ptr %4, align 4
  br label %49

49:                                               ; preds = %47, %42
  %50 = load i32, ptr %4, align 4
  ret i32 %50
}

; Function Attrs: mustprogress nounwind uwtable
define linkonce_odr hidden void @_ZN17IntrinsicDescPairC2EP8ciMethodb(ptr noundef nonnull align 8 dereferenceable(9) %0, ptr noundef %1, i1 noundef zeroext %2) unnamed_addr #1 comdat align 2 {
  %4 = alloca ptr, align 8
  %5 = alloca ptr, align 8
  %6 = alloca i8, align 1
  store ptr %0, ptr %4, align 8
  store ptr %1, ptr %5, align 8
  %7 = zext i1 %2 to i8
  store i8 %7, ptr %6, align 1
  %8 = load ptr, ptr %4, align 8
  %9 = getelementptr inbounds %class.IntrinsicDescPair, ptr %8, i32 0, i32 0
  %10 = load ptr, ptr %5, align 8
  store ptr %10, ptr %9, align 8
  %11 = getelementptr inbounds %class.IntrinsicDescPair, ptr %8, i32 0, i32 1
  %12 = load i8, ptr %6, align 1
  %13 = trunc i8 %12 to i1
  %14 = zext i1 %13 to i8
  store i8 %14, ptr %11, align 8
  ret void
}

; Function Attrs: mustprogress nounwind uwtable
define linkonce_odr hidden noundef zeroext i1 @_ZN7Compile27gather_intrinsic_statisticsE13vmIntrinsicIDbi(i32 noundef %0, i1 noundef zeroext %1, i32 noundef %2) #1 comdat align 2 {
  %4 = alloca i32, align 4
  %5 = alloca i8, align 1
  %6 = alloca i32, align 4
  store i32 %0, ptr %4, align 4
  %7 = zext i1 %1 to i8
  store i8 %7, ptr %5, align 1
  store i32 %2, ptr %6, align 4
  ret i1 false
}

; Function Attrs: mustprogress nounwind uwtable
define linkonce_odr hidden noundef i32 @_ZNK8ciMethod12intrinsic_idEv(ptr noundef nonnull align 8 dereferenceable(160) %0) #1 comdat align 2 {
  %2 = alloca ptr, align 8
  store ptr %0, ptr %2, align 8
  %3 = load ptr, ptr %2, align 8
  call void @_ZNK8ciMethod15check_is_loadedEv(ptr noundef nonnull align 8 dereferenceable(160) %3)
  %4 = getelementptr inbounds %class.ciMethod, ptr %3, i32 0, i32 10
  %5 = load i32, ptr %4, align 4
  ret i32 %5
}

; Function Attrs: mustprogress nounwind uwtable
define linkonce_odr hidden noundef nonnull align 8 dereferenceable(8) ptr @_ZN17GrowableArrayViewIP13CallGeneratorE2atEi(ptr noundef nonnull align 8 dereferenceable(16) %0, i32 noundef %1) #1 comdat align 2 {
  %3 = alloca ptr, align 8
  %4 = alloca i32, align 4
  store ptr %0, ptr %3, align 8
  store i32 %1, ptr %4, align 4
  %5 = load ptr, ptr %3, align 8
  %6 = getelementptr inbounds %class.GrowableArrayView, ptr %5, i32 0, i32 1
  %7 = load ptr, ptr %6, align 8
  %8 = load i32, ptr %4, align 4
  %9 = sext i32 %8 to i64
  %10 = getelementptr inbounds ptr, ptr %7, i64 %9
  ret ptr %10
}

; Function Attrs: mustprogress nounwind uwtable
define hidden noundef i32 @_ZN7Compile25intrinsic_insertion_indexEP8ciMethodbRb(ptr noundef nonnull align 8 dereferenceable(2316) %0, ptr noundef %1, i1 noundef zeroext %2, ptr noundef nonnull align 1 dereferenceable(1) %3) #1 align 2 {
  %5 = alloca ptr, align 8
  %6 = alloca ptr, align 8
  %7 = alloca i8, align 1
  %8 = alloca ptr, align 8
  %9 = alloca %class.IntrinsicDescPair, align 8
  %10 = alloca ptr, align 8
  store ptr %0, ptr %5, align 8
  store ptr %1, ptr %6, align 8
  %11 = zext i1 %2 to i8
  store i8 %11, ptr %7, align 1
  store ptr %3, ptr %8, align 8
  %12 = load ptr, ptr %5, align 8
  %13 = load ptr, ptr %6, align 8
  %14 = load i8, ptr %7, align 1
  %15 = trunc i8 %14 to i1
  call void @_ZN17IntrinsicDescPairC2EP8ciMethodb(ptr noundef nonnull align 8 dereferenceable(9) %9, ptr noundef %13, i1 noundef zeroext %15)
  %16 = getelementptr inbounds %class.Compile, ptr %12, i32 0, i32 62
  store ptr %9, ptr %10, align 8
  %17 = load ptr, ptr %8, align 8
  %18 = call noundef i32 @_ZNK17GrowableArrayViewIP13CallGeneratorE11find_sortedIP17IntrinsicDescPairTnPFiRKT_RKS1_EXadL_ZNS4_7compareERKS5_SA_EEEEiS8_Rb(ptr noundef nonnull align 8 dereferenceable(16) %16, ptr noundef nonnull align 8 dereferenceable(8) %10, ptr noundef nonnull align 1 dereferenceable(1) %17)
  ret i32 %18
}

; Function Attrs: mustprogress nounwind uwtable
define linkonce_odr hidden noundef i32 @_ZNK17GrowableArrayBase6lengthEv(ptr noundef nonnull align 4 dereferenceable(8) %0) #1 comdat align 2 {
  %2 = alloca ptr, align 8
  store ptr %0, ptr %2, align 8
  %3 = load ptr, ptr %2, align 8
  %4 = getelementptr inbounds %class.GrowableArrayBase, ptr %3, i32 0, i32 0
  %5 = load i32, ptr %4, align 4
  ret i32 %5
}

; Function Attrs: mustprogress nounwind uwtable
define hidden noundef ptr @_ZN7Compile14find_intrinsicEP8ciMethodb(ptr noundef nonnull align 8 dereferenceable(2316) %0, ptr noundef %1, i1 noundef zeroext %2) #1 align 2 {
  %4 = alloca ptr, align 8
  %5 = alloca ptr, align 8
  %6 = alloca ptr, align 8
  %7 = alloca i8, align 1
  %8 = alloca i8, align 1
  %9 = alloca i32, align 4
  %10 = alloca ptr, align 8
  store ptr %0, ptr %5, align 8
  store ptr %1, ptr %6, align 8
  %11 = zext i1 %2 to i8
  store i8 %11, ptr %7, align 1
  %12 = load ptr, ptr %5, align 8
  %13 = getelementptr inbounds %class.Compile, ptr %12, i32 0, i32 62
  %14 = call noundef i32 @_ZNK17GrowableArrayBase6lengthEv(ptr noundef nonnull align 4 dereferenceable(8) %13)
  %15 = icmp sgt i32 %14, 0
  br i1 %15, label %16, label %29

16:                                               ; preds = %3
  store i8 0, ptr %8, align 1
  %17 = load ptr, ptr %6, align 8
  %18 = load i8, ptr %7, align 1
  %19 = trunc i8 %18 to i1
  %20 = call noundef i32 @_ZN7Compile25intrinsic_insertion_indexEP8ciMethodbRb(ptr noundef nonnull align 8 dereferenceable(2316) %12, ptr noundef %17, i1 noundef zeroext %19, ptr noundef nonnull align 1 dereferenceable(1) %8)
  store i32 %20, ptr %9, align 4
  %21 = load i8, ptr %8, align 1
  %22 = trunc i8 %21 to i1
  br i1 %22, label %23, label %28

23:                                               ; preds = %16
  %24 = getelementptr inbounds %class.Compile, ptr %12, i32 0, i32 62
  %25 = load i32, ptr %9, align 4
  %26 = call noundef nonnull align 8 dereferenceable(8) ptr @_ZN17GrowableArrayViewIP13CallGeneratorE2atEi(ptr noundef nonnull align 8 dereferenceable(16) %24, i32 noundef %25)
  %27 = load ptr, ptr %26, align 8
  store ptr %27, ptr %4, align 8
  br label %55

28:                                               ; preds = %16
  br label %29

29:                                               ; preds = %28, %3
  %30 = load ptr, ptr %6, align 8
  %31 = call noundef i32 @_ZNK8ciMethod12intrinsic_idEv(ptr noundef nonnull align 8 dereferenceable(160) %30)
  %32 = icmp ne i32 %31, 0
  br i1 %32, label %33, label %54

33:                                               ; preds = %29
  %34 = load ptr, ptr %6, align 8
  %35 = call noundef i32 @_ZNK8ciMethod12intrinsic_idEv(ptr noundef nonnull align 8 dereferenceable(160) %34)
  %36 = icmp sle i32 %35, 375
  br i1 %36, label %37, label %54

37:                                               ; preds = %33
  %38 = load ptr, ptr %6, align 8
  %39 = load i8, ptr %7, align 1
  %40 = trunc i8 %39 to i1
  %41 = call noundef ptr @_ZN7Compile17make_vm_intrinsicEP8ciMethodb(ptr noundef nonnull align 8 dereferenceable(2316) %12, ptr noundef %38, i1 noundef zeroext %40)
  store ptr %41, ptr %10, align 8
  %42 = load ptr, ptr %10, align 8
  %43 = icmp ne ptr %42, null
  br i1 %43, label %44, label %47

44:                                               ; preds = %37
  %45 = load ptr, ptr %10, align 8
  call void @_ZN7Compile18register_intrinsicEP13CallGenerator(ptr noundef nonnull align 8 dereferenceable(2316) %12, ptr noundef %45)
  %46 = load ptr, ptr %10, align 8
  store ptr %46, ptr %4, align 8
  br label %55

47:                                               ; preds = %37
  %48 = load ptr, ptr %6, align 8
  %49 = call noundef i32 @_ZNK8ciMethod12intrinsic_idEv(ptr noundef nonnull align 8 dereferenceable(160) %48)
  %50 = load i8, ptr %7, align 1
  %51 = trunc i8 %50 to i1
  %52 = call noundef zeroext i1 @_ZN7Compile27gather_intrinsic_statisticsE13vmIntrinsicIDbi(i32 noundef %49, i1 noundef zeroext %51, i32 noundef 4)
  br label %53

53:                                               ; preds = %47
  br label %54

54:                                               ; preds = %53, %33, %29
  store ptr null, ptr %4, align 8
  br label %55

55:                                               ; preds = %54, %44, %23
  %56 = load ptr, ptr %4, align 8
  ret ptr %56
}