; Function Attrs: mustprogress nounwind uwtable
define hidden noundef ptr @_ZN7Compile14find_intrinsicEP8ciMethodb(ptr noundef nonnull align 8 dereferenceable(2316) %0, ptr noundef %1, i1 noundef zeroext %2) local_unnamed_addr #0 align 2 {
  %4 = getelementptr inbounds i8, ptr %0, i64 392
  %5 = load i32, ptr %4, align 8
  %6 = icmp sgt i32 %5, 0
  br i1 %6, label %.lr.ph.i.i, label %_ZN7Compile25intrinsic_insertion_indexEP8ciMethodbRb.exit

.lr.ph.i.i:                                       ; preds = %3
  %7 = add nsw i32 %5, -1
  %8 = getelementptr inbounds i8, ptr %0, i64 400
  br i1 %2, label %.lr.ph.i.split.us.split.i, label %.lr.ph.i.split.split.us.i

.lr.ph.i.split.us.split.i:                        ; preds = %.lr.ph.i.i, %27
  %.01527.i.us.i = phi i32 [ %.1.i.us.i, %27 ], [ 0, %.lr.ph.i.i ]
  %.01626.i.us.i = phi i32 [ %.117.i.us.i, %27 ], [ %7, %.lr.ph.i.i ]
  %9 = add i32 %.01626.i.us.i, %.01527.i.us.i
  %10 = lshr i32 %9, 1
  %11 = load ptr, ptr %8, align 8
  %12 = zext nneg i32 %10 to i64
  %13 = getelementptr inbounds ptr, ptr %11, i64 %12
  %14 = load ptr, ptr %13, align 8
  %15 = getelementptr inbounds i8, ptr %14, i64 8
  %16 = load ptr, ptr %15, align 8
  %17 = icmp ugt ptr %16, %1
  br i1 %17, label %25, label %18

18:                                               ; preds = %.lr.ph.i.split.us.split.i
  %19 = icmp ult ptr %16, %1
  br i1 %19, label %_ZN17IntrinsicDescPair7compareERKPS_RKP13CallGenerator.exit.thread21.i.us.i, label %_ZN17IntrinsicDescPair7compareERKPS_RKP13CallGenerator.exit.i.us.i

_ZN17IntrinsicDescPair7compareERKPS_RKP13CallGenerator.exit.i.us.i: ; preds = %18
  %20 = load ptr, ptr %14, align 8
  %21 = getelementptr inbounds i8, ptr %20, i64 48
  %22 = load ptr, ptr %21, align 8
  %23 = tail call noundef zeroext i1 %22(ptr noundef nonnull align 8 dereferenceable(16) %14) #17
  br i1 %23, label %.loopexit, label %_ZN17IntrinsicDescPair7compareERKPS_RKP13CallGenerator.exit.thread21.i.us.i

_ZN17IntrinsicDescPair7compareERKPS_RKP13CallGenerator.exit.thread21.i.us.i: ; preds = %_ZN17IntrinsicDescPair7compareERKPS_RKP13CallGenerator.exit.i.us.i, %18
  %24 = add nuw nsw i32 %10, 1
  br label %27

25:                                               ; preds = %.lr.ph.i.split.us.split.i
  %26 = add nsw i32 %10, -1
  br label %27

27:                                               ; preds = %25, %_ZN17IntrinsicDescPair7compareERKPS_RKP13CallGenerator.exit.thread21.i.us.i
  %.117.i.us.i = phi i32 [ %.01626.i.us.i, %_ZN17IntrinsicDescPair7compareERKPS_RKP13CallGenerator.exit.thread21.i.us.i ], [ %26, %25 ]
  %.1.i.us.i = phi i32 [ %24, %_ZN17IntrinsicDescPair7compareERKPS_RKP13CallGenerator.exit.thread21.i.us.i ], [ %.01527.i.us.i, %25 ]
  %.not.i.us.i = icmp slt i32 %.117.i.us.i, %.1.i.us.i
  br i1 %.not.i.us.i, label %_ZN7Compile25intrinsic_insertion_indexEP8ciMethodbRb.exit, label %.lr.ph.i.split.us.split.i, !llvm.loop !6

.lr.ph.i.split.split.us.i:                        ; preds = %.lr.ph.i.i, %47
  %.01527.i.us5.i = phi i32 [ %.1.i.us10.i, %47 ], [ 0, %.lr.ph.i.i ]
  %.01626.i.us6.i = phi i32 [ %.117.i.us9.i, %47 ], [ %7, %.lr.ph.i.i ]
  %28 = add i32 %.01626.i.us6.i, %.01527.i.us5.i
  %29 = lshr i32 %28, 1
  %30 = load ptr, ptr %8, align 8
  %31 = zext nneg i32 %29 to i64
  %32 = getelementptr inbounds ptr, ptr %30, i64 %31
  %33 = load ptr, ptr %32, align 8
  %34 = getelementptr inbounds i8, ptr %33, i64 8
  %35 = load ptr, ptr %34, align 8
  %36 = icmp ugt ptr %35, %1
  br i1 %36, label %45, label %37

37:                                               ; preds = %.lr.ph.i.split.split.us.i
  %38 = icmp ult ptr %35, %1
  br i1 %38, label %_ZN17IntrinsicDescPair7compareERKPS_RKP13CallGenerator.exit.thread21.i.us8.i, label %39

39:                                               ; preds = %37
  %40 = load ptr, ptr %33, align 8
  %41 = getelementptr inbounds i8, ptr %40, i64 48
  %42 = load ptr, ptr %41, align 8
  %43 = tail call noundef zeroext i1 %42(ptr noundef nonnull align 8 dereferenceable(16) %33) #17
  br i1 %43, label %45, label %.loopexit

_ZN17IntrinsicDescPair7compareERKPS_RKP13CallGenerator.exit.thread21.i.us8.i: ; preds = %37
  %44 = add nuw nsw i32 %29, 1
  br label %47

45:                                               ; preds = %39, %.lr.ph.i.split.split.us.i
  %46 = add nsw i32 %29, -1
  br label %47

47:                                               ; preds = %45, %_ZN17IntrinsicDescPair7compareERKPS_RKP13CallGenerator.exit.thread21.i.us8.i
  %.117.i.us9.i = phi i32 [ %.01626.i.us6.i, %_ZN17IntrinsicDescPair7compareERKPS_RKP13CallGenerator.exit.thread21.i.us8.i ], [ %46, %45 ]
  %.1.i.us10.i = phi i32 [ %44, %_ZN17IntrinsicDescPair7compareERKPS_RKP13CallGenerator.exit.thread21.i.us8.i ], [ %.01527.i.us5.i, %45 ]
  %.not.i.us11.i = icmp slt i32 %.117.i.us9.i, %.1.i.us10.i
  br i1 %.not.i.us11.i, label %_ZN7Compile25intrinsic_insertion_indexEP8ciMethodbRb.exit, label %.lr.ph.i.split.split.us.i, !llvm.loop !6

.loopexit:                                        ; preds = %39, %_ZN17IntrinsicDescPair7compareERKPS_RKP13CallGenerator.exit.i.us.i
  %.pre-phi = phi i64 [ %12, %_ZN17IntrinsicDescPair7compareERKPS_RKP13CallGenerator.exit.i.us.i ], [ %31, %39 ]
  %48 = load ptr, ptr %8, align 8
  %49 = getelementptr inbounds ptr, ptr %48, i64 %.pre-phi
  %50 = load ptr, ptr %49, align 8
  br label %57

_ZN7Compile25intrinsic_insertion_indexEP8ciMethodbRb.exit: ; preds = %47, %27, %3
  %51 = getelementptr inbounds i8, ptr %1, i64 84
  %52 = load i32, ptr %51, align 4
  %.not = icmp ne i32 %52, 0
  %53 = icmp slt i32 %52, 376
  %or.cond = and i1 %.not, %53
  br i1 %or.cond, label %54, label %57

54:                                               ; preds = %_ZN7Compile25intrinsic_insertion_indexEP8ciMethodbRb.exit
  %55 = tail call noundef ptr @_ZN7Compile17make_vm_intrinsicEP8ciMethodb(ptr noundef nonnull align 8 dereferenceable(2316) %0, ptr noundef nonnull %1, i1 noundef zeroext %2) #17
  %.not14 = icmp eq ptr %55, null
  br i1 %.not14, label %57, label %56

56:                                               ; preds = %54
  tail call void @_ZN7Compile18register_intrinsicEP13CallGenerator(ptr noundef nonnull align 8 dereferenceable(2316) %0, ptr noundef nonnull %55)
  br label %57

57:                                               ; preds = %54, %_ZN7Compile25intrinsic_insertion_indexEP8ciMethodbRb.exit, %56, %.loopexit
  %.0 = phi ptr [ %50, %.loopexit ], [ %55, %56 ], [ null, %_ZN7Compile25intrinsic_insertion_indexEP8ciMethodbRb.exit ], [ null, %54 ]
  ret ptr %.0
}